     1                                  ;***********************************************************
     2                                  ;  マクロ
     3                                  ;***********************************************************
     4                                  %include "../include/define.s"
     1                              <1> BOOT_SIZE equ (1024 * 8)
     2                              <1> KERNEL_SIZE equ (1024 * 8)
     3                              <1> 
     4                              <1> BOOT_LOAD equ 0x7C00
     5                              <1> BOOT_END equ (BOOT_LOAD + BOOT_SIZE)
     6                              <1> 
     7                              <1> KERNEL_LOAD equ 0x0010_1000
     8                              <1> 
     9                              <1> SECT_SIZE equ (512)
    10                              <1> 
    11                              <1> BOOT_SECT equ (BOOT_SIZE / SECT_SIZE)
    12                              <1> KERNEL_SECT equ (KERNEL_SIZE / SECT_SIZE)
    13                              <1> 
    14                              <1> E820_RECORD_SIZE equ 20
    15                              <1> 
    16                              <1> VECT_BASE equ 0x0010_0000
    17                              <1> 
    18                              <1> STACK_BASE equ 0x0010_3000
    19                              <1> STACK_SIZE equ 1024
    20                              <1> 
    21                              <1> SP_TASK_0 equ STACK_BASE + (STACK_SIZE * 1)
    22                              <1> SP_TASK_1 equ STACK_BASE + (STACK_SIZE * 2)
    23                              <1> SP_TASK_2 equ STACK_BASE + (STACK_SIZE * 3)
    24                              <1> SP_TASK_3 equ STACK_BASE + (STACK_SIZE * 4)
    25                              <1> SP_TASK_4 equ STACK_BASE + (STACK_SIZE * 5)
    26                              <1> SP_TASK_5 equ STACK_BASE + (STACK_SIZE * 6)
    27                              <1> SP_TASK_6 equ STACK_BASE + (STACK_SIZE * 7)
    28                              <1> 
    29                              <1> CR3_BASE equ 0x0010_5000
    30                              <1> 
    31                              <1> PARAM_TASK_4 equ 0x0010_8000
    32                              <1> PARAM_TASK_5 equ 0x0010_9000
    33                              <1> PARAM_TASK_6 equ 0x0010_A000
    34                              <1> 
    35                              <1> CR3_TASK_4 equ 0x0020_0000
    36                              <1> CR3_TASK_5 equ 0x0020_2000
    37                              <1> CR3_TASK_6 equ 0x0020_4000
    38                              <1> 
    39                              <1> FAT_SIZE equ (1024 * 128)
    40                              <1> ROOT_SIZE equ (1024 * 16)
    41                              <1> 
    42                              <1> FAT1_START equ (KERNEL_SIZE)
    43                              <1> FAT2_START equ (FAT1_START + FAT_SIZE)
    44                              <1> ROOT_START equ (FAT2_START + FAT_SIZE)
    45                              <1> FILE_START equ (ROOT_START + ROOT_SIZE)
    46                              <1> 
    47                              <1> ATTR_VOLUME_ID equ 0x08
    48                              <1> ATTR_ARCHIVE equ 0x20
     5                                  %include "../include/macro.s"
     1                              <1> %macro cdecl 1-*.nolist
     2                              <1>     %rep %0 - 1
     3                              <1>         push %{-1:-1}
     4                              <1>         %rotate -1
     5                              <1>     %endrep
     6                              <1>     %rotate -1
     7                              <1> 
     8                              <1>     call %1
     9                              <1> 
    10                              <1>     %if 1 < %0
    11                              <1>         add sp, (__BITS__ >> 3) * (%0 - 1)
    12                              <1>     %endif
    13                              <1> %endmacro
    14                              <1> 
    15                              <1> %macro set_vect 1-*.nolist
    16                              <1>         push eax
    17                              <1>         push edi
    18                              <1> 
    19                              <1>         mov edi, VECT_BASE + (%1 * 8)
    20                              <1>         mov eax, %2
    21                              <1> 
    22                              <1> 	%if 3 == %0
    23                              <1> 		mov [edi + 4], %3
    24                              <1> 	%endif
    25                              <1> 
    26                              <1>         mov [edi + 0], ax
    27                              <1>         shr eax, 16
    28                              <1>         mov [edi + 6], ax
    29                              <1> 
    30                              <1>         pop edi
    31                              <1>         pop eax
    32                              <1> %endmacro
    33                              <1> 
    34                              <1> %macro outp 2
    35                              <1>     mov al, %2
    36                              <1>     out %1, al
    37                              <1> %endmacro
    38                              <1> 
    39                              <1> %macro set_desc 2-*
    40                              <1>         push eax
    41                              <1>         push edi
    42                              <1> 
    43                              <1>         mov edi, %1
    44                              <1>         mov eax, %2
    45                              <1> 
    46                              <1>     %if 3 == %0
    47                              <1>         mov [edi + 0], %3
    48                              <1>     %endif
    49                              <1> 
    50                              <1>         mov [edi + 2], ax
    51                              <1>         shr eax, 16
    52                              <1>         mov [edi + 4], al
    53                              <1>         mov [edi + 7], ah
    54                              <1> 
    55                              <1>         pop edi
    56                              <1>         pop eax
    57                              <1> %endmacro
    58                              <1> 
    59                              <1> %macro  set_gate 2-*
    60                              <1>     push eax
    61                              <1>     push edi
    62                              <1> 
    63                              <1>     mov edi, %1
    64                              <1>     mov eax, %2
    65                              <1> 
    66                              <1>     mov [edi + 0], ax
    67                              <1>     shr eax, 16
    68                              <1>     mov [edi + 6], ax
    69                              <1> 
    70                              <1>     pop edi
    71                              <1>     pop eax
    72                              <1> %endmacro
    73                              <1> 
    74                              <1> struc drive
    75 00000000 <res 00000002>      <1>     .no resw 1      ; ドライブ番号
    76 00000002 <res 00000002>      <1>     .cyln resw 1    ; シリンダ
    77 00000004 <res 00000002>      <1>     .head resw 1    ; ヘッド
    78 00000006 <res 00000002>      <1>     .sect resw 1    ; セクタ
    79                              <1> endstruc
    80                              <1> 
    81                              <1> %define RING_ITEM_SIZE (1 << 4)
    82                              <1> %define RING_INDEX_MASK (RING_ITEM_SIZE - 1)
    83                              <1> 
    84                              <1> struc ring_buff
    85 00000000 <res 00000004>      <1>     .rp resd 1                  ; RP:書き込み位置
    86 00000004 <res 00000004>      <1>     .wp resd 1                  ; WP:読み込み位置
    87 00000008 <res 00000010>      <1>     .item resb RING_ITEM_SIZE   ; バッファ
    88                              <1> endstruc
    89                              <1> 
    90                              <1> struc rose
    91 00000000 <res 00000004>      <1>     .x0 resd 1
    92 00000004 <res 00000004>      <1>     .y0 resd 1
    93 00000008 <res 00000004>      <1>     .x1 resd 1
    94 0000000C <res 00000004>      <1>     .y1 resd 1
    95                              <1> 
    96 00000010 <res 00000004>      <1>     .n resd 1
    97 00000014 <res 00000004>      <1>     .d resd 1
    98                              <1> 
    99 00000018 <res 00000004>      <1>     .color_x resd 1
   100 0000001C <res 00000004>      <1>     .color_y resd 1
   101 00000020 <res 00000004>      <1>     .color_z resd 1
   102 00000024 <res 00000004>      <1>     .color_s resd 1
   103 00000028 <res 00000004>      <1>     .color_f resd 1
   104 0000002C <res 00000004>      <1>     .color_b resd 1
   105                              <1> 
   106 00000030 <res 00000010>      <1>     .title resb 16
   107                              <1> endstruc
     6                                  
     7                                          ORG BOOT_LOAD
     8                                  
     9                                  ;***********************************************************
    10                                  ;  エントリポイント
    11                                  ;***********************************************************
    12                                  entry:
    13                                          ;------------------------------------------
    14                                          ; BPB(BIOS Parameter Block)
    15                                          ;------------------------------------------
    16 00000000 EB3C                            jmp ipl
    17 00000002 90                              times 3 - ($ - $$) db 0x90
    18 00000003 4F454D2D4E414D45                db 'OEM-NAME'
    19                                  
    20 0000000B 0002                            dw 512
    21 0000000D 01                              db 1
    22 0000000E 2000                            dw 32
    23 00000010 02                              db 2
    24 00000011 0002                            dw 512
    25 00000013 F0FF                            dw 0xFFF0
    26 00000015 F8                              db 0xF8
    27 00000016 0001                            dw 256
    28 00000018 1000                            dw 0x10
    29 0000001A 0200                            dw 2
    30 0000001C 00000000                        dd 0
    31                                  
    32 00000020 00000000                        dd 0
    33 00000024 80                              db 0x80
    34 00000025 00                              db 0
    35 00000026 29                              db 0x29
    36 00000027 EFBE0000                        dd 0xbeef
    37 0000002B 424F4F5441424C4520-             db 'BOOTABLE   '
    37 00000034 2020               
    38 00000036 4641543136202020                db 'FAT16   '
    39                                  
    40                                          ;------------------------------------------
    41                                          ; IPL(Initial Program Loader)
    42                                          ;------------------------------------------
    43                                  ipl:
    44 0000003E FA                              cli
    45                                  
    46 0000003F B80000                          mov ax, 0x0000
    47 00000042 8ED8                            mov ds, ax
    48 00000044 8EC0                            mov es, ax
    49 00000046 8ED0                            mov ss, ax
    50 00000048 BC007C                          mov sp, BOOT_LOAD
    51                                  
    52 0000004B FB                              sti
    53                                  
    54 0000004C 8816[9C00]                      mov [BOOT + drive.no], dl
    55                                  
    56                                          ;------------------------------------------
    57                                          ; 文字列を表示
    58                                          ;------------------------------------------
    59 00000050 68[7D00]E84E0083C4-             cdecl puts, .s0
    59 00000058 02                 
    60                                  
    61                                          ;------------------------------------------
    62                                          ; 残りのセクタをすべて読み込む
    63                                          ;------------------------------------------
    64 00000059 BB0F00                          mov bx, BOOT_SECT - 1
    65 0000005C B9007E                          mov cx, BOOT_LOAD + SECT_SIZE
    66                                  
    67 0000005F 515368[9C00]E89B00-             cdecl read_chs, BOOT, bx, cx
    67 00000067 83C406             
    68                                  
    69 0000006A 39D8                            cmp ax, bx
    70                                  .10Q:
    71 0000006C 740C                            jz .10E
    72                                  .10T:
    73 0000006E 68[8A00]E8300083C4-             cdecl puts, .e0
    73 00000076 02                 
    74 00000077 E84900                          call reboot
    75                                  .10E:
    76                                  
    77                                          ;------------------------------------------
    78                                          ; 次のステージへ移行
    79                                          ;------------------------------------------
    80 0000007A E92D06                          jmp stage_2
    81                                  
    82                                          ;------------------------------------------
    83                                          ; データ
    84                                          ;------------------------------------------
    85 0000007D 426F6F74696E672E2E-     .s0     db "Booting...", 0x0A, 0x0D, 0
    85 00000086 2E0A0D00           
    86 0000008A 4572726F723A736563-     .e0     db "Error:sector read", 0
    86 00000093 746F72207265616400 
    87                                  
    88                                  ;***********************************************************
    89                                  ;  ブートドライブに関する情報
    90                                  ;***********************************************************
    91                                  ALIGN 2, db 0
    92                                  BOOT:
    93                                          istruc drive
    94 0000009C 0000                                at drive.no, dw 0
    95 0000009E 0000                                at drive.cyln, dw 0
    96 000000A0 0000                                at drive.head, dw 0
    97 000000A2 0200                                at drive.sect, dw 2
    98                                          iend
    99                                  
   100                                  ;***********************************************************
   101                                  ;  モジュール
   102                                  ;***********************************************************
   103                                  %include "../modules/real/puts.s"
     1                              <1> puts:
     2                              <1>         ;---------------------------------------
     3                              <1>         ; 【スタックフレームの構築】
     4                              <1>         ;---------------------------------------
     5 000000A4 55                  <1>         push bp
     6 000000A5 89E5                <1>         mov bp, sp
     7                              <1> 
     8                              <1>         ;---------------------------------------
     9                              <1>         ; 【レジスタの保存】
    10                              <1>         ;---------------------------------------
    11 000000A7 50                  <1>         push ax
    12 000000A8 53                  <1>         push bx
    13 000000A9 56                  <1>         push si
    14                              <1> 
    15                              <1>         ;---------------------------------------
    16                              <1>         ; 引数を取得
    17                              <1>         ;---------------------------------------
    18 000000AA 8B7604              <1>         mov si, [bp + 4]
    19                              <1> 
    20                              <1>         ;---------------------------------------
    21                              <1>         ; 【処理の開始】
    22                              <1>         ;---------------------------------------
    23 000000AD B40E                <1>         mov ah, 0x0E
    24 000000AF BB0000              <1>         mov bx, 0x0000
    25 000000B2 FC                  <1>         cld
    26                              <1> .10L:
    27 000000B3 AC                  <1>         lodsb
    28 000000B4 3C00                <1>         cmp al, 0
    29 000000B6 7404                <1>         je .10E
    30 000000B8 CD10                <1>         int 0x10
    31 000000BA EBF7                <1>         jmp .10L
    32                              <1> .10E:
    33                              <1> 
    34                              <1>         ;---------------------------------------
    35                              <1>         ; 【レジスタの復帰】
    36                              <1>         ;---------------------------------------
    37 000000BC 5E                  <1>         pop si
    38 000000BD 5B                  <1>         pop bx
    39 000000BE 58                  <1>         pop ax
    40                              <1> 
    41                              <1>         ;---------------------------------------
    42                              <1>         ; 【スタックフレームの破棄】
    43                              <1>         ;---------------------------------------
    44 000000BF 89EC                <1>         mov sp, bp
    45 000000C1 5D                  <1>         pop bp
    46                              <1> 
    47 000000C2 C3                  <1>         ret
   104                                  %include "../modules/real/reboot.s"
     1                              <1> reboot:
     2                              <1>         ;---------------------------------------
     3                              <1>         ; メッセージを表示
     4                              <1>         ;---------------------------------------
     5 000000C3 68[DF00]E8DBFF83C4- <1>         cdecl puts, .s0
     5 000000CB 02                  <1>
     6                              <1> 
     7                              <1>         ;---------------------------------------
     8                              <1>         ; キー入力待ち
     9                              <1>         ;---------------------------------------
    10                              <1> .10L:
    11 000000CC B410                <1>         mov ah, 0x10
    12 000000CE CD16                <1>         int 0x16
    13                              <1> 
    14 000000D0 3C20                <1>         cmp al, ' '
    15 000000D2 75F8                <1>         jne .10L
    16                              <1> 
    17                              <1>         ;---------------------------------------
    18                              <1>         ; 改行を出力
    19                              <1>         ;---------------------------------------
    20 000000D4 68[FD00]E8CAFF83C4- <1>         cdecl puts, .s1
    20 000000DC 02                  <1>
    21                              <1> 
    22                              <1>         ;---------------------------------------
    23                              <1>         ; 再起動
    24                              <1>         ;---------------------------------------
    25 000000DD CD19                <1>         int 0x19
    26                              <1> 
    27                              <1>         ;---------------------------------------
    28                              <1>         ; 文字列データ
    29                              <1>         ;---------------------------------------
    30 000000DF 0A0D50757368205350- <1> .s0     db 0x0A, 0x0D, "Push SPACE key to reboot...", 0
    30 000000E8 414345206B65792074- <1>
    30 000000F1 6F207265626F6F742E- <1>
    30 000000FA 2E2E00              <1>
    31 000000FD 0A0D0A0D00          <1> .s1     db 0x0A, 0x0D, 0x0A, 0x0D, 0
   105                                  %include "../modules/real/read_chs.s"
     1                              <1> read_chs:
     2                              <1>         ;-----------------------------------------
     3                              <1>         ; 【スタックフレームの構築】
     4                              <1>         ;-----------------------------------------
     5 00000102 55                  <1>         push bp
     6 00000103 89E5                <1>         mov bp, sp
     7 00000105 6A03                <1>         push 3
     8 00000107 6A00                <1>         push 0
     9                              <1> 
    10                              <1>         ;-----------------------------------------
    11                              <1>         ; 【レジスタの保存】
    12                              <1>         ;-----------------------------------------
    13 00000109 53                  <1>         push bx
    14 0000010A 51                  <1>         push cx
    15 0000010B 52                  <1>         push dx
    16 0000010C 06                  <1>         push es
    17 0000010D 56                  <1>         push si
    18                              <1> 
    19                              <1>         ;-----------------------------------------
    20                              <1>         ; 【処理の開始】
    21                              <1>         ;-----------------------------------------
    22 0000010E 8B7604              <1>         mov si, [bp + 4]                          ; SI = SRCバッファ
    23                              <1> 
    24                              <1>         ;-----------------------------------------
    25                              <1>         ; CXレジスタの設定
    26                              <1>         ; (BIOSコールの呼び出しに適した形に変換)
    27                              <1>         ;-----------------------------------------
    28 00000111 8A6C02              <1>         mov ch, [si + drive.cyln + 0]
    29 00000114 8A4C03              <1>         mov cl, [si + drive.cyln + 1]
    30 00000117 C0E106              <1>         shl cl, 6
    31 0000011A 8A4C06              <1>         mov cl, [si + drive.sect]
    32                              <1> 
    33                              <1>         ;-----------------------------------------
    34                              <1>         ; セクタ読み込み
    35                              <1>         ;-----------------------------------------
    36 0000011D 8A7404              <1>         mov dh, [si + drive.head]
    37 00000120 8A14                <1>         mov dl, [si + 0]
    38 00000122 B80000              <1>         mov ax, 0x0000
    39 00000125 8EC0                <1>         mov es, ax
    40 00000127 8B5E08              <1>         mov bx, [bp + 8]
    41                              <1> .10L:
    42 0000012A B402                <1>         mov ah, 0x02
    43 0000012C 8A4606              <1>         mov al, [bp + 6]
    44 0000012F CD13                <1>         int 0x13
    45 00000131 7304                <1>         jnc .11E
    46 00000133 B000                <1>         mov al, 0
    47 00000135 EB0C                <1>         jmp .10E
    48                              <1> .11E:
    49 00000137 3C00                <1>         cmp al, 0
    50 00000139 7508                <1>         jne .10E
    51 0000013B B80000              <1>         mov ax, 0
    52 0000013E FF4EFE              <1>         dec word[bp - 2]
    53 00000141 75E7                <1>         jnz .10L
    54                              <1> .10E:
    55 00000143 B400                <1>         mov ah, 0
    56                              <1> 
    57                              <1>         ;-----------------------------------------
    58                              <1>         ; 【レジスタの復帰】
    59                              <1>         ;-----------------------------------------
    60 00000145 5E                  <1>         pop si
    61 00000146 07                  <1>         pop es
    62 00000147 5A                  <1>         pop dx
    63 00000148 59                  <1>         pop cx
    64 00000149 5B                  <1>         pop bx
    65                              <1> 
    66                              <1>         ;-----------------------------------------
    67                              <1>         ; 【スタックフレームの破棄】
    68                              <1>         ;-----------------------------------------
    69 0000014A 89EC                <1>         mov sp, bp
    70 0000014C 5D                  <1>         pop bp
    71                              <1> 
    72 0000014D C3                  <1>         ret
   106                                  
   107                                  ;***********************************************************
   108                                  ;  ブートフラグ(先頭512バイトの終了)
   109                                  ;***********************************************************
   110 0000014E 00<rept>                        times 510 - ($ - $$) db 0x00
   111 000001FE 55AA                            db 0x55, 0xAA
   112                                  
   113                                  ;***********************************************************
   114                                  ;  リアルモード時に取得した情報
   115                                  ;***********************************************************
   116                                  FONT:
   117 00000200 0000                    .seg:   dw 0
   118 00000202 0000                    .off:   dw 0
   119                                  ACPI_DATA:
   120 00000204 00000000                .adr:   dd 0
   121 00000208 00000000                .len:   dd 0
   122                                  
   123                                  ;***********************************************************
   124                                  ;  モジュール(先頭512バイト以降に配置)
   125                                  ;***********************************************************
   126                                  %include "../modules/real/itoa.s"
     1                              <1> itoa:
     2                              <1>         ;---------------------------------------
     3                              <1>         ; 【スタックフレームの構築】
     4                              <1>         ;---------------------------------------
     5 0000020C 55                  <1>         push bp
     6 0000020D 89E5                <1>         mov bp, sp
     7                              <1> 
     8                              <1>         ;---------------------------------------
     9                              <1>         ; 【レジスタの保存】
    10                              <1>         ;---------------------------------------
    11 0000020F 50                  <1>         push ax
    12 00000210 53                  <1>         push bx
    13 00000211 51                  <1>         push cx
    14 00000212 52                  <1>         push dx
    15 00000213 56                  <1>         push si
    16 00000214 57                  <1>         push di
    17                              <1> 
    18                              <1>         ;---------------------------------------
    19                              <1>         ; 引数を取得
    20                              <1>         ;---------------------------------------
    21 00000215 8B4604              <1>         mov ax, [bp + 4]                        ; val = 数値
    22 00000218 8B7606              <1>         mov si, [bp + 6]                        ; dst = バッファアドレス
    23 0000021B 8B4E08              <1>         mov cx, [bp + 8]                        ; size = 残りバッファサイズ
    24                              <1> 
    25 0000021E 89F7                <1>         mov di, si
    26 00000220 01CF                <1>         add di, cx                              ; dst = &dst[size - 1]
    27 00000222 4F                  <1>         dec di
    28                              <1> 
    29 00000223 8B5E0C              <1>         mov bx, word[bp + 12]                   ; flags = オプション
    30                              <1> 
    31                              <1>         ;---------------------------------------
    32                              <1>         ; 符号付き判定
    33                              <1>         ;---------------------------------------
    34 00000226 F7C30100            <1>         test bx, 0b0001
    35                              <1> .10Q:
    36 0000022A 7408                <1>         je .10E
    37 0000022C 83F800              <1>         cmp ax, 0
    38                              <1> .12Q:
    39 0000022F 7D03                <1>         jge .12E
    40 00000231 83CB02              <1>         or bx, 0b0010
    41                              <1> .12E:
    42                              <1> .10E:
    43                              <1> 
    44                              <1>         ;---------------------------------------
    45                              <1>         ; 符号出力判定
    46                              <1>         ;---------------------------------------
    47 00000234 F7C30200            <1>         test bx, 0b0010
    48                              <1> .20Q:
    49 00000238 7410                <1>         je .20E
    50 0000023A 83F800              <1>         cmp ax, 0
    51                              <1> .22Q:
    52 0000023D 7D07                <1>         jge .22F
    53 0000023F F7D8                <1>         neg ax
    54 00000241 C6042D              <1>         mov [si], byte '-'
    55 00000244 EB03                <1>         jmp .22E
    56                              <1> .22F:
    57 00000246 C6042B              <1>         mov [si], byte '+'
    58                              <1> .22E:
    59 00000249 49                  <1>         dec cx
    60                              <1> .20E:
    61                              <1> 
    62                              <1>         ;---------------------------------------
    63                              <1>         ; ASCII 変換
    64                              <1>         ;---------------------------------------
    65 0000024A 8B5E0A              <1>         mov bx, [bp + 10]
    66                              <1> .30L:
    67 0000024D BA0000              <1>         mov dx, 0
    68 00000250 F7F3                <1>         div bx
    69                              <1> 
    70 00000252 89D6                <1>         mov si, dx
    71 00000254 8A94[7C02]          <1>         mov dl, byte[.ascii + si]
    72                              <1> 
    73 00000258 8815                <1>         mov [di], dl
    74 0000025A 4F                  <1>         dec di
    75                              <1> 
    76 0000025B 83F800              <1>         cmp ax, 0
    77 0000025E E0ED                <1>         loopnz .30L
    78                              <1> .30E:
    79                              <1> 
    80                              <1>         ;---------------------------------------
    81                              <1>         ; 空欄を埋める
    82                              <1>         ;---------------------------------------
    83 00000260 83F900              <1>         cmp cx, 0
    84                              <1> .40Q:
    85 00000263 740D                <1>         je .40E
    86 00000265 B020                <1>         mov al, ' '
    87 00000267 837E0C04            <1>         cmp [bp + 12], word 0b0100
    88                              <1> .42Q:
    89 0000026B 7502                <1>         jne .42E
    90 0000026D B030                <1>         mov al, '0'
    91                              <1> .42E:
    92 0000026F FD                  <1>         std
    93 00000270 F3AA                <1>         rep stosb
    94                              <1> .40E:
    95                              <1> 
    96                              <1>         ;---------------------------------------
    97                              <1>         ; 【レジスタの復帰】
    98                              <1>         ;---------------------------------------
    99 00000272 5F                  <1>         pop di
   100 00000273 5E                  <1>         pop si
   101 00000274 5A                  <1>         pop dx
   102 00000275 59                  <1>         pop cx
   103 00000276 5B                  <1>         pop bx
   104 00000277 58                  <1>         pop ax
   105                              <1> 
   106                              <1>         ;---------------------------------------
   107                              <1>         ; 【スタックフレームの破棄】
   108                              <1>         ;---------------------------------------
   109 00000278 89EC                <1>         mov sp, bp
   110 0000027A 5D                  <1>         pop bp
   111                              <1> 
   112 0000027B C3                  <1>         ret
   113                              <1> 
   114 0000027C 303132333435363738- <1> .ascii db "0123456789ABCDEF"
   114 00000285 39414243444546      <1>
   127                                  %include "../modules/real/get_drive_param.s"
     1                              <1> get_drive_param:
     2                              <1>         ;-----------------------------------------
     3                              <1>         ; 【スタックフレームの構築】
     4                              <1>         ;-----------------------------------------
     5 0000028C 55                  <1>         push bp
     6 0000028D 89E5                <1>         mov bp, sp
     7                              <1> 
     8                              <1>         ;-----------------------------------------
     9                              <1>         ; 【レジスタの保存】
    10                              <1>         ;-----------------------------------------
    11 0000028F 53                  <1>         push bx
    12 00000290 51                  <1>         push cx
    13 00000291 06                  <1>         push es
    14 00000292 56                  <1>         push si
    15 00000293 57                  <1>         push di
    16                              <1> 
    17                              <1>         ;-----------------------------------------
    18                              <1>         ; 【処理の開始】
    19                              <1>         ;-----------------------------------------
    20 00000294 8B7604              <1>         mov si, [bp + 4]                          ; SI = SRCバッファ
    21                              <1> 
    22 00000297 B80000              <1>         mov ax, 0
    23 0000029A 8EC0                <1>         mov es, ax
    24 0000029C 89C7                <1>         mov di, ax
    25                              <1> 
    26 0000029E B408                <1>         mov ah, 8
    27 000002A0 8A14                <1>         mov dl, [si + drive.no]
    28 000002A2 CD13                <1>         int 0x13
    29                              <1> .10Q:
    30 000002A4 721B                <1>         jc .10F
    31                              <1> .10T:
    32 000002A6 88C8                <1>         mov al, cl
    33 000002A8 83E03F              <1>         and ax, 0x3F
    34                              <1> 
    35 000002AB C0E906              <1>         shr cl, 6
    36 000002AE C1C908              <1>         ror cx, 8
    37 000002B1 41                  <1>         inc cx
    38                              <1> 
    39 000002B2 0FB6DE              <1>         movzx bx, dh
    40 000002B5 43                  <1>         inc bx
    41                              <1> 
    42 000002B6 894C02              <1>         mov [si + drive.cyln], cx
    43 000002B9 895C04              <1>         mov [si + drive.head], bx
    44 000002BC 894406              <1>         mov [si + drive.sect], ax
    45                              <1> 
    46 000002BF EB03                <1>         jmp .10E
    47                              <1> .10F:
    48 000002C1 B80000              <1>         mov ax, 0
    49                              <1> .10E:
    50                              <1> 
    51                              <1>         ;-----------------------------------------
    52                              <1>         ; 【レジスタの復帰】
    53                              <1>         ;-----------------------------------------
    54 000002C4 5F                  <1>         pop di
    55 000002C5 5E                  <1>         pop si
    56 000002C6 07                  <1>         pop es
    57 000002C7 59                  <1>         pop cx
    58 000002C8 5B                  <1>         pop bx
    59                              <1> 
    60                              <1>         ;-----------------------------------------
    61                              <1>         ; 【スタックフレームの破棄】
    62                              <1>         ;-----------------------------------------
    63 000002C9 89EC                <1>         mov sp, bp
    64 000002CB 5D                  <1>         pop bp
    65                              <1> 
    66 000002CC C3                  <1>         ret
   128                                  %include "../modules/real/get_font_adr.s"
     1                              <1> get_font_adr:
     2                              <1>         ;-----------------------------------------
     3                              <1>         ; 【スタックフレームの構築】
     4                              <1>         ;-----------------------------------------
     5 000002CD 55                  <1>         push bp
     6 000002CE 89E5                <1>         mov bp, sp
     7                              <1> 
     8                              <1>         ;-----------------------------------------
     9                              <1>         ; 【レジスタの保存】
    10                              <1>         ;-----------------------------------------
    11 000002D0 50                  <1>         push ax
    12 000002D1 53                  <1>         push bx
    13 000002D2 56                  <1>         push si
    14 000002D3 06                  <1>         push es
    15 000002D4 55                  <1>         push bp
    16                              <1> 
    17                              <1>         ;-----------------------------------------
    18                              <1>         ; 引数を取得
    19                              <1>         ;-----------------------------------------
    20 000002D5 8B7604              <1>         mov si, [bp + 4]                          ; FONTアドレスの保存先
    21                              <1> 
    22                              <1>         ;-----------------------------------------
    23                              <1>         ; フォントアドレスの取得
    24                              <1>         ;-----------------------------------------
    25 000002D8 B83011              <1>         mov ax, 0x1130
    26 000002DB B706                <1>         mov bh, 0x06
    27 000002DD CD10                <1>         int 10h
    28                              <1> 
    29                              <1>         ;-----------------------------------------
    30                              <1>         ; FONTアドレスを保存
    31                              <1>         ;-----------------------------------------
    32 000002DF 8C04                <1>         mov [si + 0], es
    33 000002E1 896C02              <1>         mov [si + 2], bp
    34                              <1> 
    35                              <1>         ;-----------------------------------------
    36                              <1>         ; 【レジスタの復帰】
    37                              <1>         ;-----------------------------------------
    38 000002E4 5D                  <1>         pop bp
    39 000002E5 07                  <1>         pop es
    40 000002E6 5E                  <1>         pop si
    41 000002E7 5B                  <1>         pop bx
    42 000002E8 58                  <1>         pop ax
    43                              <1> 
    44                              <1>         ;-----------------------------------------
    45                              <1>         ; 【スタックフレームの破棄】
    46                              <1>         ;-----------------------------------------
    47 000002E9 89EC                <1>         mov sp, bp
    48 000002EB 5D                  <1>         pop bp
    49                              <1> 
    50 000002EC C3                  <1>         ret
   129                                  %include "../modules/real/get_mem_info.s"
     1                              <1> get_mem_info:
     2                              <1>         ;-----------------------------------------
     3                              <1>         ; 【レジスタの保存】
     4                              <1>         ;-----------------------------------------
     5 000002ED 6650                <1>         push eax
     6 000002EF 6653                <1>         push ebx
     7 000002F1 6651                <1>         push ecx
     8 000002F3 6652                <1>         push edx
     9 000002F5 56                  <1>         push si
    10 000002F6 57                  <1>         push di
    11 000002F7 55                  <1>         push bp
    12                              <1> 
    13                              <1> ALIGN 4, db 0
    14 000002F8 00<rept>            <1> .b0:    times E820_RECORD_SIZE db 0
    15                              <1> 
    16 0000030C 68[A003]E892FD83C4- <1>         cdecl puts, .s0
    16 00000314 02                  <1>
    17                              <1> 
    18                              <1>         ; メモリ情報を取得する
    19 00000315 BD0000              <1>         mov bp, 0
    20 00000318 66BB00000000        <1>         mov ebx, 0
    21                              <1> .10L:
    22 0000031E 66B820E80000        <1>         mov eax, 0x0000E820
    23 00000324 66B914000000        <1>         mov ecx, E820_RECORD_SIZE
    24 0000032A 66BA50414D53        <1>         mov edx, 'PAMS'
    25 00000330 BF[F802]            <1>         mov di, .b0
    26 00000333 CD15                <1>         int 0x15
    27                              <1> 
    28                              <1>         ; コマンドに対応か？
    29 00000335 663D50414D53        <1>         cmp eax, 'PAMS'
    30 0000033B 7402                <1>         je .12E
    31 0000033D EB4C                <1>         jmp .10E
    32                              <1> .12E:
    33                              <1>         ; エラーなし？
    34 0000033F 7302                <1>         jnc .14E
    35 00000341 EB48                <1>         jmp .10E
    36                              <1> .14E:
    37                              <1>         ; 1レコード分のメモリ情報を表示
    38 00000343 57E8E40083C402      <1>         cdecl put_mem_info, di
    39                              <1> 
    40                              <1>         ; ACPI dataのアドレスを取得
    41 0000034A 668B4510            <1>         mov eax, [di + 16]
    42 0000034E 6683F803            <1>         cmp eax, 3
    43 00000352 750F                <1>         jne .15E
    44                              <1> 
    45 00000354 668B05              <1>         mov eax, [di + 0]
    46 00000357 66A3[0402]          <1>         mov [ACPI_DATA.adr], eax
    47                              <1> 
    48 0000035B 668B4508            <1>         mov eax, [di + 8]
    49 0000035F 66A3[0802]          <1>         mov [ACPI_DATA.len], eax
    50                              <1> .15E:
    51 00000363 6683FB00            <1>         cmp ebx, 0
    52 00000367 741C                <1>         jz .16E
    53                              <1> 
    54 00000369 45                  <1>         inc bp
    55 0000036A 83E507              <1>         and bp, 0x07
    56 0000036D 7516                <1>         jnz .16E
    57                              <1> 
    58 0000036F 68[1304]E82FFD83C4- <1>         cdecl puts, .s2
    58 00000377 02                  <1>
    59                              <1> 
    60 00000378 B410                <1>         mov ah, 0x10
    61 0000037A CD16                <1>         int 0x16
    62                              <1> 
    63 0000037C 68[1E04]E822FD83C4- <1>         cdecl puts, .s3
    63 00000384 02                  <1>
    64                              <1> .16E:
    65 00000385 6683FB00            <1>         cmp ebx, 0
    66 00000389 7593                <1>         jne .10L
    67                              <1> .10E:
    68 0000038B 68[E303]E813FD83C4- <1>         cdecl puts, .s1
    68 00000393 02                  <1>
    69                              <1> 
    70                              <1>         ;-----------------------------------------
    71                              <1>         ; 【レジスタの復帰】
    72                              <1>         ;-----------------------------------------
    73 00000394 5D                  <1>         pop bp
    74 00000395 5F                  <1>         pop di
    75 00000396 5E                  <1>         pop si
    76 00000397 665A                <1>         pop edx
    77 00000399 6659                <1>         pop ecx
    78 0000039B 665B                <1>         pop ebx
    79 0000039D 6658                <1>         pop eax
    80                              <1> 
    81 0000039F C3                  <1>         ret
    82                              <1> 
    83                              <1>         ;------------------------------------------
    84                              <1>         ; データ
    85                              <1>         ;------------------------------------------
    86 000003A0 2045383230204D656D- <1> .s0:	db " E820 Memory Map:", 0x0A, 0x0D
    86 000003A9 6F7279204D61703A0A- <1>
    86 000003B2 0D                  <1>
    87 000003B3 20426173655F5F5F5F- <1> 	db " Base_____________ Length___________ Type____", 0x0A, 0x0D, 0
    87 000003BC 5F5F5F5F5F5F5F5F5F- <1>
    87 000003C5 204C656E6774685F5F- <1>
    87 000003CE 5F5F5F5F5F5F5F5F5F- <1>
    87 000003D7 20547970655F5F5F5F- <1>
    87 000003E0 0A0D00              <1>
    88 000003E3 202D2D2D2D2D2D2D2D- <1> .s1:	db " ----------------- ----------------- --------", 0x0A, 0x0D, 0
    88 000003EC 2D2D2D2D2D2D2D2D2D- <1>
    88 000003F5 202D2D2D2D2D2D2D2D- <1>
    88 000003FE 2D2D2D2D2D2D2D2D2D- <1>
    88 00000407 202D2D2D2D2D2D2D2D- <1>
    88 00000410 0A0D00              <1>
    89 00000413 203C6D6F72652E2E2E- <1> .s2:    db " <more...>", 0
    89 0000041C 3E00                <1>
    90 0000041E 0D2020202020202020- <1> .s3:    db 0x0D, "          ", 0x0D, 0
    90 00000427 20200D00            <1>
    91                              <1> 
    92                              <1> put_mem_info:
    93                              <1>         ;------------------------------------------
    94                              <1>         ; 【スタックフレームの構築】
    95                              <1>         ;------------------------------------------
    96 0000042B 55                  <1>         push bp
    97 0000042C 89E5                <1>         mov bp, sp
    98                              <1> 
    99                              <1>         ;-----------------------------------------
   100                              <1>         ; 【レジスタの保存】
   101                              <1>         ;-----------------------------------------
   102 0000042E 53                  <1>         push bx
   103 0000042F 56                  <1>         push si
   104                              <1> 
   105                              <1>         ;-----------------------------------------
   106                              <1>         ; 引数を取得
   107                              <1>         ;-----------------------------------------
   108 00000430 8B7604              <1>         mov si, [bp + 4]
   109                              <1> 
   110                              <1>         ;-----------------------------------------
   111                              <1>         ; レコードの表示
   112                              <1>         ;-----------------------------------------
   113                              <1>         ; Base(64bit)
   114 00000433 6A046A106A0468-     <1>         cdecl itoa, word[si + 6], .p2 + 0, 4, 16, 0b0100
   114 0000043A [0A05]FF7406E8CAFD- <1>
   114 00000442 83C40A              <1>
   115 00000445 6A046A106A0468-     <1>         cdecl itoa, word[si + 4], .p2 + 4, 4, 16, 0b0100
   115 0000044C [0E05]FF7404E8B8FD- <1>
   115 00000454 83C40A              <1>
   116 00000457 6A046A106A0468-     <1>         cdecl itoa, word[si + 2], .p3 + 0, 4, 16, 0b0100
   116 0000045E [1305]FF7402E8A6FD- <1>
   116 00000466 83C40A              <1>
   117 00000469 6A046A106A0468-     <1>         cdecl itoa, word[si + 0], .p3 + 4, 4, 16, 0b0100
   117 00000470 [1705]FF34E895FD83- <1>
   117 00000478 C40A                <1>
   118                              <1> 
   119                              <1>         ; Length(64bit)
   120 0000047A 6A046A106A0468-     <1>         cdecl itoa, word[si + 14], .p4 + 0, 4, 16, 0b0100
   120 00000481 [1C05]FF740EE883FD- <1>
   120 00000489 83C40A              <1>
   121 0000048C 6A046A106A0468-     <1>         cdecl itoa, word[si + 12], .p4 + 4, 4, 16, 0b0100
   121 00000493 [2005]FF740CE871FD- <1>
   121 0000049B 83C40A              <1>
   122 0000049E 6A046A106A0468-     <1>         cdecl itoa, word[si + 10], .p5 + 0, 4, 16, 0b0100
   122 000004A5 [2505]FF740AE85FFD- <1>
   122 000004AD 83C40A              <1>
   123 000004B0 6A046A106A0468-     <1>         cdecl itoa, word[si + 8], .p5 + 4, 4, 16, 0b0100
   123 000004B7 [2905]FF7408E84DFD- <1>
   123 000004BF 83C40A              <1>
   124                              <1> 
   125                              <1>         ; Type(32bit)
   126 000004C2 6A046A106A0468-     <1>         cdecl itoa, word[si + 18], .p6 + 0, 4, 16, 0b0100
   126 000004C9 [2E05]FF7412E83BFD- <1>
   126 000004D1 83C40A              <1>
   127 000004D4 6A046A106A0468-     <1>         cdecl itoa, word[si + 16], .p6 + 4, 4, 16, 0b0100
   127 000004DB [3205]FF7410E829FD- <1>
   127 000004E3 83C40A              <1>
   128                              <1> 
   129 000004E6 68[0905]E8B8FB83C4- <1>         cdecl puts, .s1
   129 000004EE 02                  <1>
   130                              <1> 
   131 000004EF 8B5C10              <1>         mov bx, [si + 16]
   132 000004F2 83E307              <1>         and bx, 0x07
   133 000004F5 D1E3                <1>         shl bx, 1
   134 000004F7 81C3[8B05]          <1>         add bx, .t0
   135 000004FB FF37E8A4FB83C402    <1>         cdecl puts, word[bx]
   136                              <1> 
   137                              <1>         ;-----------------------------------------
   138                              <1>         ; 【レジスタの復帰】
   139                              <1>         ;-----------------------------------------
   140 00000503 5E                  <1>         pop si
   141 00000504 5B                  <1>         pop bx
   142                              <1> 
   143                              <1>         ;-----------------------------------------
   144                              <1>         ; 【スタックフレームの破棄】
   145                              <1>         ;-----------------------------------------
   146 00000505 89EC                <1>         mov sp, bp
   147 00000507 5D                  <1>         pop bp
   148                              <1> 
   149 00000508 C3                  <1>         ret
   150                              <1> 
   151                              <1>         ;------------------------------------------
   152                              <1>         ; データ
   153                              <1>         ;------------------------------------------
   154 00000509 20                  <1> .s1:    db " "
   155 0000050A 5A5A5A5A5A5A5A5A5F  <1> .p2:    db "ZZZZZZZZ_"
   156 00000513 5A5A5A5A5A5A5A5A20  <1> .p3:    db "ZZZZZZZZ "
   157 0000051C 5A5A5A5A5A5A5A5A5F  <1> .p4:    db "ZZZZZZZZ_"
   158 00000525 5A5A5A5A5A5A5A5A20  <1> .p5:    db "ZZZZZZZZ "
   159 0000052E 5A5A5A5A5A5A5A5A00  <1> .p6:    db "ZZZZZZZZ", 0
   160                              <1> 
   161 00000537 2028556E6B6E6F776E- <1> .s4:    db " (Unknown)", 0x0A, 0x0D, 0
   161 00000540 290A0D00            <1>
   162 00000544 2028757361626C6529- <1> .s5:    db " (usable)", 0x0A, 0x0D, 0
   162 0000054D 0A0D00              <1>
   163 00000550 202872657365727665- <1> .s6:    db " (reserved)", 0x0A, 0x0D, 0
   163 00000559 64290A0D00          <1>
   164 0000055E 202841435049206461- <1> .s7:    db " (ACPI data)", 0x0A, 0x0D, 0
   164 00000567 7461290A0D00        <1>
   165 0000056D 202841435049204E56- <1> .s8:    db " (ACPI NVS)", 0x0A, 0x0D, 0
   165 00000576 53290A0D00          <1>
   166 0000057B 2028626164206D656D- <1> .s9:    db " (bad memory)", 0x0A, 0x0D, 0
   166 00000584 6F7279290A0D00      <1>
   167                              <1> 
   168 0000058B [3705][4405][5005]- <1> .t0: dw .s4, .s5, .s6, .s7, .s8, .s9, .s4, .s4
   168 00000591 [5E05][6D05][7B05]- <1>
   168 00000597 [3705][3705]        <1>
   130                                  %include "../modules/real/kbc.s"
     1                              <1> KBC_Data_Write:
     2                              <1>         ;-----------------------------------------
     3                              <1>         ; 【スタックフレームの構築】
     4                              <1>         ;-----------------------------------------
     5 0000059B 55                  <1>         push bp
     6 0000059C 89E5                <1>         mov bp, sp
     7                              <1> 
     8                              <1>         ;-----------------------------------------
     9                              <1>         ; 【レジスタの保存】
    10                              <1>         ;-----------------------------------------
    11 0000059E 51                  <1>         push cx
    12                              <1> 
    13                              <1>         ;-----------------------------------------
    14                              <1>         ; 書き込み処理
    15                              <1>         ;-----------------------------------------
    16 0000059F B90000              <1>         mov cx, 0
    17                              <1> .10L:
    18 000005A2 E464                <1>         in al, 0x64
    19 000005A4 A802                <1>         test al, 0x02
    20 000005A6 E0FA                <1>         loopnz .10L
    21                              <1> 
    22 000005A8 83F900              <1>         cmp cx, 0
    23 000005AB 7405                <1>         jz .20E
    24                              <1> 
    25 000005AD 8A4604              <1>         mov al, [bp + 4]
    26 000005B0 E660                <1>         out 0x60, al
    27                              <1> .20E:
    28 000005B2 89C8                <1>         mov ax, cx
    29                              <1> 
    30                              <1>         ;-----------------------------------------
    31                              <1>         ; 【レジスタの復帰】
    32                              <1>         ;-----------------------------------------
    33 000005B4 59                  <1>         pop cx
    34                              <1> 
    35                              <1>         ;-----------------------------------------
    36                              <1>         ; 【スタックフレームの破棄】
    37                              <1>         ;-----------------------------------------
    38 000005B5 89EC                <1>         mov sp, bp
    39 000005B7 5D                  <1>         pop bp
    40                              <1> 
    41 000005B8 C3                  <1>         ret
    42                              <1> 
    43                              <1> KBC_Data_Read:
    44                              <1>         ;-----------------------------------------
    45                              <1>         ; 【スタックフレームの構築】
    46                              <1>         ;-----------------------------------------
    47 000005B9 55                  <1>         push bp
    48 000005BA 89E5                <1>         mov bp, sp
    49                              <1> 
    50                              <1>         ;-----------------------------------------
    51                              <1>         ; 【レジスタの保存】
    52                              <1>         ;-----------------------------------------
    53 000005BC 51                  <1>         push cx
    54                              <1> 
    55                              <1>         ;-----------------------------------------
    56                              <1>         ; 読み込み処理
    57                              <1>         ;-----------------------------------------
    58 000005BD B90000              <1>         mov cx, 0
    59                              <1> .10L:
    60 000005C0 E464                <1>         in al, 0x64
    61 000005C2 A801                <1>         test al, 0x01
    62 000005C4 E1FA                <1>         loopz .10L
    63                              <1> 
    64 000005C6 83F900              <1>         cmp cx, 0
    65 000005C9 7409                <1>         jz .20E
    66                              <1> 
    67 000005CB B400                <1>         mov ah, 0x00
    68 000005CD E460                <1>         in al, 0x60
    69                              <1> 
    70 000005CF 8B7E04              <1>         mov di, [bp + 4]
    71 000005D2 8905                <1>         mov [di + 0], ax
    72                              <1> .20E:
    73 000005D4 89C8                <1>         mov ax, cx
    74                              <1> 
    75                              <1>         ;-----------------------------------------
    76                              <1>         ; 【レジスタの復帰】
    77                              <1>         ;-----------------------------------------
    78 000005D6 59                  <1>         pop cx
    79                              <1> 
    80                              <1>         ;-----------------------------------------
    81                              <1>         ; 【スタックフレームの破棄】
    82                              <1>         ;-----------------------------------------
    83 000005D7 89EC                <1>         mov sp, bp
    84 000005D9 5D                  <1>         pop bp
    85                              <1> 
    86 000005DA C3                  <1>         ret
    87                              <1> 
    88                              <1> KBC_Cmd_Write:
    89                              <1>         ;-----------------------------------------
    90                              <1>         ; 【スタックフレームの構築】
    91                              <1>         ;-----------------------------------------
    92 000005DB 55                  <1>         push bp
    93 000005DC 89E5                <1>         mov bp, sp
    94                              <1> 
    95                              <1>         ;-----------------------------------------
    96                              <1>         ; 【レジスタの保存】
    97                              <1>         ;-----------------------------------------
    98 000005DE 51                  <1>         push cx
    99                              <1> 
   100                              <1>         ;-----------------------------------------
   101                              <1>         ; コマンド書き込み
   102                              <1>         ;-----------------------------------------
   103 000005DF B90000              <1>         mov cx, 0
   104                              <1> .10L:
   105 000005E2 E464                <1>         in al, 0x64
   106 000005E4 A802                <1>         test al, 0x02
   107 000005E6 E0FA                <1>         loopnz .10L
   108                              <1> 
   109 000005E8 83F900              <1>         cmp cx, 0
   110 000005EB 7405                <1>         jz .20E
   111                              <1> 
   112 000005ED 8A4604              <1>         mov al, [bp + 4]
   113 000005F0 E664                <1>         out 0x64, al
   114                              <1> .20E:
   115 000005F2 89C8                <1>         mov ax, cx
   116                              <1> 
   117                              <1>         ;-----------------------------------------
   118                              <1>         ; 【レジスタの復帰】
   119                              <1>         ;-----------------------------------------
   120 000005F4 59                  <1>         pop cx
   121                              <1> 
   122                              <1>         ;-----------------------------------------
   123                              <1>         ; 【スタックフレームの破棄】
   124                              <1>         ;-----------------------------------------
   125 000005F5 89EC                <1>         mov sp, bp
   126 000005F7 5D                  <1>         pop bp
   127                              <1> 
   128 000005F8 C3                  <1>         ret
   131                                  %include "../modules/real/lba_chs.s"
     1                              <1> lba_chs:
     2                              <1>         ;-----------------------------------------
     3                              <1>         ; 【スタックフレームの構築】
     4                              <1>         ;-----------------------------------------
     5 000005F9 55                  <1>         push bp
     6 000005FA 89E5                <1>         mov bp, sp
     7                              <1> 
     8                              <1>         ;-----------------------------------------
     9                              <1>         ; 【レジスタの保存】
    10                              <1>         ;-----------------------------------------
    11 000005FC 50                  <1>         push ax
    12 000005FD 53                  <1>         push bx
    13 000005FE 52                  <1>         push dx
    14 000005FF 56                  <1>         push si
    15 00000600 57                  <1>         push di
    16                              <1> 
    17                              <1>         ;-----------------------------------------
    18                              <1>         ; セクタ数の計算
    19                              <1>         ;-----------------------------------------
    20 00000601 8B7604              <1>         mov si, [bp + 4]
    21 00000604 8B7E06              <1>         mov di, [bp + 6]
    22                              <1> 
    23 00000607 8A4404              <1>         mov al, [si + drive.head]
    24 0000060A F66406              <1>         mul byte [si + drive.sect]
    25 0000060D 89C3                <1>         mov bx, ax
    26                              <1> 
    27 0000060F BA0000              <1>         mov dx, 0
    28 00000612 8B4608              <1>         mov ax, [bp + 8]
    29 00000615 F7F3                <1>         div bx
    30                              <1> 
    31 00000617 894502              <1>         mov [di + drive.cyln], ax
    32                              <1> 
    33 0000061A 89D0                <1>         mov ax, dx
    34 0000061C F67406              <1>         div byte [si + drive.sect]
    35                              <1> 
    36 0000061F 0FB6D4              <1>         movzx dx, ah
    37 00000622 42                  <1>         inc dx
    38                              <1> 
    39 00000623 B400                <1>         mov ah, 0x00
    40                              <1> 
    41 00000625 894504              <1>         mov [di + drive.head], ax
    42 00000628 895506              <1>         mov [di + drive.sect], dx
    43                              <1> 
    44                              <1>         ;-----------------------------------------
    45                              <1>         ; 【レジスタの復帰】
    46                              <1>         ;-----------------------------------------
    47 0000062B 5F                  <1>         pop di
    48 0000062C 5E                  <1>         pop si
    49 0000062D 5A                  <1>         pop dx
    50 0000062E 5B                  <1>         pop bx
    51 0000062F 58                  <1>         pop ax
    52                              <1> 
    53                              <1>         ;-----------------------------------------
    54                              <1>         ; 【スタックフレームの破棄】
    55                              <1>         ;-----------------------------------------
    56 00000630 89EC                <1>         mov sp, bp
    57 00000632 5D                  <1>         pop bp
    58                              <1> 
    59 00000633 C3                  <1>         ret
   132                                  %include "../modules/real/read_lba.s"
     1                              <1> read_lba:
     2                              <1>         ;-----------------------------------------
     3                              <1>         ; 【スタックフレームの構築】
     4                              <1>         ;-----------------------------------------
     5 00000634 55                  <1>         push bp
     6 00000635 89E5                <1>         mov bp, sp
     7                              <1> 
     8                              <1>         ;-----------------------------------------
     9                              <1>         ; 【レジスタの保存】
    10                              <1>         ;-----------------------------------------
    11 00000637 56                  <1>         push si
    12                              <1> 
    13                              <1>         ;-----------------------------------------
    14                              <1>         ; 【前処理】
    15                              <1>         ;-----------------------------------------
    16 00000638 8B7604              <1>         mov si, [bp + 4]
    17                              <1> 
    18                              <1>         ;-----------------------------------------
    19                              <1>         ; LBA→CHS変換
    20                              <1>         ;-----------------------------------------
    21 0000063B 8B4606              <1>         mov ax, [bp + 6]
    22 0000063E 5068[6206]56E8B3FF- <1>         cdecl lba_chs, si, .chs, ax
    22 00000646 83C406              <1>
    23                              <1> 
    24                              <1>         ;-----------------------------------------
    25                              <1>         ; ドライブ番号のコピー
    26                              <1>         ;-----------------------------------------
    27 00000649 8A04                <1>         mov al, [si + drive.no]
    28 0000064B A2[6206]            <1>         mov [.chs + drive.no], al
    29                              <1> 
    30                              <1>         ;-----------------------------------------
    31                              <1>         ; セクタの読み込み
    32                              <1>         ;-----------------------------------------
    33 0000064E FF760AFF760868-     <1>         cdecl read_chs, .chs, word[bp + 8], word[bp + 10]
    33 00000655 [6206]E8A8FA83C406  <1>
    34                              <1> 
    35                              <1>         ;-----------------------------------------
    36                              <1>         ; 【レジスタの復帰】
    37                              <1>         ;-----------------------------------------
    38 0000065D 5E                  <1>         pop si
    39                              <1> 
    40                              <1>         ;-----------------------------------------
    41                              <1>         ; 【スタックフレームの破棄】
    42                              <1>         ;-----------------------------------------
    43 0000065E 89EC                <1>         mov sp, bp
    44 00000660 5D                  <1>         pop bp
    45                              <1> 
    46 00000661 C3                  <1>         ret
    47                              <1> 
    48                              <1> ALIGN 2
    49 00000662 00<rept>            <1> .chs:   times drive_size db 0
   133                                  %include "../modules/real/memcpy.s"
     1                              <1> memcpy:
     2                              <1>         ;-----------------------------------------
     3                              <1>         ; 【スタックフレームの構築】
     4                              <1>         ;-----------------------------------------
     5 0000066A 55                  <1>         push bp
     6 0000066B 89E5                <1>         mov bp, sp
     7                              <1> 
     8                              <1>         ;-----------------------------------------
     9                              <1>         ; 【レジスタの保存】
    10                              <1>         ;-----------------------------------------
    11 0000066D 51                  <1>         push cx
    12 0000066E 56                  <1>         push si
    13 0000066F 57                  <1>         push di
    14                              <1> 
    15                              <1>         ;-----------------------------------------
    16                              <1>         ; バイト単位でのコピー
    17                              <1>         ;-----------------------------------------
    18 00000670 FC                  <1>         cld
    19 00000671 8B7E04              <1>         mov di, [bp + 4]
    20 00000674 8B7606              <1>         mov si, [bp + 6]
    21 00000677 8B4E08              <1>         mov cx, [bp + 8]
    22                              <1> 
    23 0000067A F3A4                <1>         rep movsb
    24                              <1> 
    25                              <1>         ;-----------------------------------------
    26                              <1>         ; 【レジスタの復帰】
    27                              <1>         ;-----------------------------------------
    28 0000067C 5F                  <1>         pop di
    29 0000067D 5E                  <1>         pop si
    30 0000067E 59                  <1>         pop cx
    31                              <1> 
    32                              <1>         ;-----------------------------------------
    33                              <1>         ; 【スタックフレームの破棄】
    34                              <1>         ;-----------------------------------------
    35 0000067F 89EC                <1>         mov sp, bp
    36 00000681 5D                  <1>         pop bp
    37                              <1> 
    38 00000682 C3                  <1>         ret
   134                                  %include "../modules/real/memcmp.s"
     1                              <1> memcmp:
     2                              <1>         ;-----------------------------------------
     3                              <1>         ; 【スタックフレームの構築】
     4                              <1>         ;-----------------------------------------
     5 00000683 55                  <1>         push bp
     6 00000684 89E5                <1>         mov bp, sp
     7                              <1> 
     8                              <1>         ;-----------------------------------------
     9                              <1>         ; 【レジスタの保存】
    10                              <1>         ;-----------------------------------------
    11 00000686 53                  <1>         push bx
    12 00000687 51                  <1>         push cx
    13 00000688 52                  <1>         push dx
    14 00000689 56                  <1>         push si
    15 0000068A 57                  <1>         push di
    16                              <1> 
    17                              <1>         ;-----------------------------------------
    18                              <1>         ; 引数の取得
    19                              <1>         ;-----------------------------------------
    20 0000068B FC                  <1>         cld
    21 0000068C 8B7604              <1>         mov si, [bp + 4]
    22 0000068F 8B7E06              <1>         mov di, [bp + 6]
    23 00000692 8B4E08              <1>         mov cx, [bp + 8]
    24                              <1> 
    25                              <1>         ;-----------------------------------------
    26                              <1>         ; バイト単位での比較
    27                              <1>         ;-----------------------------------------
    28 00000695 F3A6                <1>         repe cmpsb
    29 00000697 7505                <1>         jnz .10F
    30 00000699 B80000              <1>         mov ax, 0
    31 0000069C EB03                <1>         jmp .10E
    32                              <1> .10F:
    33 0000069E B8FFFF              <1>         mov ax, -1
    34                              <1> .10E:
    35                              <1> 
    36                              <1>         ;-----------------------------------------
    37                              <1>         ; 【レジスタの復帰】
    38                              <1>         ;-----------------------------------------
    39 000006A1 5F                  <1>         pop di
    40 000006A2 5E                  <1>         pop si
    41 000006A3 5A                  <1>         pop dx
    42 000006A4 59                  <1>         pop cx
    43 000006A5 5B                  <1>         pop bx
    44                              <1> 
    45                              <1>         ;-----------------------------------------
    46                              <1>         ; 【スタックフレームの破棄】
    47                              <1>         ;-----------------------------------------
    48 000006A6 89EC                <1>         mov sp, bp
    49 000006A8 5D                  <1>         pop bp
    50                              <1> 
    51 000006A9 C3                  <1>         ret
   135                                  
   136                                  ;***********************************************************
   137                                  ;  ブート処理の第2ステージ
   138                                  ;***********************************************************
   139                                  stage_2:
   140                                          ;------------------------------------------
   141                                          ; 文字列を表示
   142                                          ;------------------------------------------
   143 000006AA 68[2407]E8F4F983C4-             cdecl puts, .s0
   143 000006B2 02                 
   144                                  
   145                                          ;------------------------------------------
   146                                          ; ドライブ情報を取得
   147                                          ;------------------------------------------
   148 000006B3 68[9C00]E8D3FB83C4-             cdecl get_drive_param, BOOT
   148 000006BB 02                 
   149 000006BC 83F800                          cmp ax, 0
   150                                  .10Q:
   151 000006BF 750C                            jne .10E
   152                                  .10T:
   153 000006C1 68[5B07]E8DDF983C4-             cdecl puts, .e0
   153 000006C9 02                 
   154 000006CA E8F6F9                          call reboot
   155                                  .10E:
   156                                  
   157                                          ;------------------------------------------
   158                                          ; ドライブ情報を取得
   159                                          ;------------------------------------------
   160 000006CD A1[9C00]                        mov ax, [BOOT + drive.no]
   161 000006D0 6A046A106A0268-                 cdecl itoa, ax, .p1, 2, 16, 0b0100
   161 000006D7 [3C07]50E82FFB83C4-
   161 000006DF 0A                 
   162 000006E0 A1[9E00]                        mov ax, [BOOT + drive.cyln]
   163 000006E3 6A046A106A0468-                 cdecl itoa, ax, .p2, 4, 16, 0b0100
   163 000006EA [4407]50E81CFB83C4-
   163 000006F2 0A                 
   164 000006F3 A1[A000]                        mov ax, [BOOT + drive.head]
   165 000006F6 6A046A106A0268-                 cdecl itoa, ax, .p3, 2, 16, 0b0100
   165 000006FD [4E07]50E809FB83C4-
   165 00000705 0A                 
   166 00000706 A1[A200]                        mov ax, [BOOT + drive.sect]
   167 00000709 6A046A106A0268-                 cdecl itoa, ax, .p4, 2, 16, 0b0100
   167 00000710 [5607]50E8F6FA83C4-
   167 00000718 0A                 
   168 00000719 68[3307]E885F983C4-             cdecl puts, .s1
   168 00000721 02                 
   169                                  
   170                                          ;------------------------------------------
   171                                          ; 次のステージへ移行
   172                                          ;------------------------------------------
   173 00000722 EB52                            jmp stage_3rd
   174                                  
   175                                          ;------------------------------------------
   176                                          ; データ
   177                                          ;------------------------------------------
   178 00000724 326E64207374616765-     .s0     db "2nd stage...", 0x0A, 0x0D, 0
   178 0000072D 2E2E2E0A0D00       
   179 00000733 2044726976653A3078      .s1     db " Drive:0x"
   180 0000073C 20202C20433A3078        .p1     db "  , C:0x"
   181 00000744 202020202C20483A30-     .p2     db "    , H:0x"
   181 0000074D 78                 
   182 0000074E 20202C20533A3078        .p3     db "  , S:0x"
   183 00000756 20200A0D00              .p4     db "  ", 0x0A, 0x0D, 0
   184 0000075B 43616E277420676574-     .e0     db "Can't get drive parameter.", 0
   184 00000764 206472697665207061-
   184 0000076D 72616D657465722E00 
   185                                  
   186                                  ;***********************************************************
   187                                  ;  ブート処理の第3ステージ
   188                                  ;***********************************************************
   189                                  stage_3rd:
   190                                          ;------------------------------------------
   191                                          ; 文字列を表示
   192                                          ;------------------------------------------
   193 00000776 68[F307]E828F983C4-             cdecl puts, .s0
   193 0000077E 02                 
   194                                  
   195                                          ;------------------------------------------
   196                                          ; プロテクトモードで使用するフォントは、
   197                                          ; BIOSに内蔵されたものを流用する
   198                                          ;------------------------------------------
   199 0000077F 68[0002]E848FB83C4-             cdecl get_font_adr, FONT
   199 00000787 02                 
   200                                  
   201                                          ;------------------------------------------
   202                                          ; フォントアドレスの表示
   203                                          ;------------------------------------------
   204 00000788 6A046A106A0468-                 cdecl itoa, word[FONT.seg], .p1, 4, 16, 0b0100
   204 0000078F [1008]FF36[0002]E8-
   204 00000796 74FA83C40A         
   205 0000079B 6A046A106A0468-                 cdecl itoa, word[FONT.off], .p2, 4, 16, 0b0100
   205 000007A2 [1508]FF36[0202]E8-
   205 000007A9 61FA83C40A         
   206 000007AE 68[0208]E8F0F883C4-             cdecl puts, .s1
   206 000007B6 02                 
   207                                  
   208                                          ;------------------------------------------
   209                                          ; メモリ情報の取得と表示
   210                                          ;------------------------------------------
   211 000007B7 E833FB                          cdecl get_mem_info
   212                                  
   213 000007BA 66A1[0402]                      mov eax, [ACPI_DATA.adr]
   214 000007BE 6683F800                        cmp eax, 0
   215 000007C2 742D                            je .10E
   216                                  
   217 000007C4 6A046A106A0468-                 cdecl itoa, ax, .p4, 4, 16, 0b0100
   217 000007CB [2E08]50E83BFA83C4-
   217 000007D3 0A                 
   218 000007D4 66C1E810                        shr eax, 16
   219 000007D8 6A046A106A0468-                 cdecl itoa, ax, .p3, 4, 16, 0b0100
   219 000007DF [2A08]50E827FA83C4-
   219 000007E7 0A                 
   220 000007E8 68[1F08]E8B6F883C4-             cdecl puts, .s2
   220 000007F0 02                 
   221                                  .10E:
   222                                  
   223                                          ;------------------------------------------
   224                                          ; 次のステージへ移行
   225                                          ;------------------------------------------
   226 000007F1 EB42                            jmp stage_4
   227                                  
   228                                          ;------------------------------------------
   229                                          ; データ
   230                                          ;------------------------------------------
   231 000007F3 337264207374616765-     .s0     db "3rd stage...", 0x0A, 0x0D, 0
   231 000007FC 2E2E2E0A0D00       
   232 00000802 20466F6E7420416464-     .s1     db " Font Address="
   232 0000080B 726573733D         
   233 00000810 5A5A5A5A3A              .p1     db "ZZZZ:"
   234 00000815 5A5A5A5A0A0D00          .p2     db "ZZZZ", 0x0A, 0x0D, 0
   235 0000081C 0A0D00                          db 0x0A, 0x0D, 0
   236 0000081F 204143504920646174-     .s2     db " ACPI data="
   236 00000828 613D               
   237 0000082A 5A5A5A5A                .p3     db "ZZZZ"
   238 0000082E 5A5A5A5A0A0D00          .p4     db "ZZZZ", 0x0A, 0x0D, 0
   239                                  
   240                                  ;***********************************************************
   241                                  ;  ブート処理の第4ステージ
   242                                  ;***********************************************************
   243                                  stage_4:
   244                                          ;------------------------------------------
   245                                          ; 文字列を表示
   246                                          ;------------------------------------------
   247 00000835 68[0909]E869F883C4-             cdecl puts, .s0
   247 0000083D 02                 
   248                                  
   249                                          ;------------------------------------------
   250                                          ; A20ゲートの有効化
   251                                          ;------------------------------------------
   252 0000083E FA                              cli
   253                                  
   254 0000083F 68AD00E896FD83C402              cdecl KBC_Cmd_Write, 0xAD
   255                                  
   256 00000848 68D000E88DFD83C402              cdecl KBC_Cmd_Write, 0xD0
   257 00000851 68[5209]E862FD83C4-             cdecl KBC_Data_Read, .key
   257 00000859 02                 
   258                                  
   259 0000085A 8A1E[5209]                      mov bl, [.key]
   260 0000085E 80CB02                          or bl, 0x02
   261                                  
   262 00000861 68D100E874FD83C402              cdecl KBC_Cmd_Write, 0xD1
   263 0000086A 53E82DFD83C402                  cdecl KBC_Data_Write, bx
   264                                  
   265 00000871 68AE00E864FD83C402              cdecl KBC_Cmd_Write, 0xAE
   266                                  
   267 0000087A FB                              sti
   268                                  
   269                                          ;------------------------------------------
   270                                          ; 文字列を表示
   271                                          ;------------------------------------------
   272 0000087B 68[1809]E823F883C4-             cdecl puts, .s1
   272 00000883 02                 
   273                                  
   274                                          ;------------------------------------------
   275                                          ; キーボードLEDのテスト
   276                                          ;------------------------------------------
   277 00000884 68[2D09]E81AF883C4-             cdecl puts, .s2
   277 0000088C 02                 
   278                                  
   279 0000088D BB0000                          mov bx, 0
   280                                  .10L:
   281 00000890 B400                            mov ah, 0x00
   282 00000892 CD16                            int 0x16
   283                                  
   284 00000894 3C31                            cmp al, '1'
   285 00000896 7266                            jb .10E
   286                                  
   287 00000898 3C33                            cmp al, '3'
   288 0000089A 7762                            ja .10E
   289                                  
   290 0000089C 88C1                            mov cl, al
   291 0000089E FEC9                            dec cl
   292 000008A0 80E103                          and cl, 0x03
   293 000008A3 B80100                          mov ax, 0x0001
   294 000008A6 D3E0                            shl ax, cl
   295 000008A8 31C3                            xor bx, ax
   296                                  
   297                                          ;------------------------------------------
   298                                          ; LEDコマンドの送信
   299                                          ;------------------------------------------
   300 000008AA FA                              cli
   301                                  
   302 000008AB 68AD00E82AFD83C402              cdecl KBC_Cmd_Write, 0xAD
   303                                  
   304 000008B4 68ED00E8E1FC83C402              cdecl KBC_Data_Write, 0xED
   305 000008BD 68[5209]E8F6FC83C4-             cdecl KBC_Data_Read, .key
   305 000008C5 02                 
   306                                  
   307 000008C6 803E[5209]FA                    cmp [.key], byte 0xFA
   308 000008CB 7509                            jne .11F
   309                                  
   310 000008CD 53E8CAFC83C402                  cdecl KBC_Data_Write, bx
   311 000008D4 EB1C                            jmp .11E
   312                                  .11F:
   313 000008D6 6A046A106A0268-                 cdecl itoa, word[.key], .e1, 2, 16, 0b0100
   313 000008DD [4E09]FF36[5209]E8-
   313 000008E4 26F983C40A         
   314 000008E9 68[4D09]E8B5F783C4-             cdecl puts, .e0
   314 000008F1 02                 
   315                                  .11E:
   316 000008F2 68AE00E8E3FC83C402              cdecl KBC_Cmd_Write, 0xAE
   317                                  
   318 000008FB FB                              sti
   319                                  
   320 000008FC EB92                            jmp .10L
   321                                  .10E:
   322                                  
   323                                          ;------------------------------------------
   324                                          ; 文字列を表示
   325                                          ;------------------------------------------
   326 000008FE 68[4309]E8A0F783C4-             cdecl puts, .s3
   326 00000906 02                 
   327                                  
   328                                          ;------------------------------------------
   329                                          ; 次のステージへ移行
   330                                          ;------------------------------------------
   331 00000907 EB4B                            jmp stage_5
   332                                  
   333                                          ;------------------------------------------
   334                                          ; データ
   335                                          ;------------------------------------------
   336 00000909 347468207374616765-     .s0:    db "4th stage...", 0x0A, 0x0D, 0
   336 00000912 2E2E2E0A0D00       
   337 00000918 204132302047617465-     .s1:    db " A20 Gate Enabled.", 0x0A, 0x0D, 0
   337 00000921 20456E61626C65642E-
   337 0000092A 0A0D00             
   338 0000092D 204B6579626F617264-     .s2:    db " Keyboard LED Test...", 0
   338 00000936 204C45442054657374-
   338 0000093F 2E2E2E00           
   339 00000943 2028646F6E65290A0D-     .s3:    db " (done)", 0x0A, 0x0D, 0
   339 0000094C 00                 
   340 0000094D 5B                      .e0:    db "["
   341 0000094E 5A5A5D00                .e1:    db "ZZ]", 0
   342 00000952 0000                    .key:   dw 0
   343                                  
   344                                  ;***********************************************************
   345                                  ;  ブート処理の第5ステージ
   346                                  ;***********************************************************
   347                                  stage_5:
   348                                          ;------------------------------------------
   349                                          ; 文字列を表示
   350                                          ;------------------------------------------
   351 00000954 68[8009]E84AF783C4-             cdecl puts, .s0
   351 0000095C 02                 
   352                                  
   353                                          ;------------------------------------------
   354                                          ; カーネルを読み込む
   355                                          ;------------------------------------------
   356 0000095D 68009C6A106A1068-               cdecl read_lba, BOOT, BOOT_SECT, KERNEL_SECT, BOOT_END
   356 00000965 [9C00]E8CAFC83C408 
   357 0000096D 83F810                          cmp ax, KERNEL_SECT
   358                                  .10Q:
   359 00000970 740C                            jz .10E
   360                                  .10T:
   361 00000972 68[8F09]E82CF783C4-             cdecl puts, .e0
   361 0000097A 02                 
   362 0000097B E845F7                          call reboot
   363                                  .10E:
   364                                  
   365                                          ;------------------------------------------
   366                                          ; 次のステージへ移行
   367                                          ;------------------------------------------
   368 0000097E EB29                            jmp stage_6
   369                                  
   370                                          ;------------------------------------------
   371                                          ; データ
   372                                          ;------------------------------------------
   373 00000980 357468207374616765-     .s0:    db "5th stage...", 0x0A, 0x0D, 0
   373 00000989 2E2E2E0A0D00       
   374 0000098F 204661696C75726520-     .e0:    db " Failure load kernel...", 0x0A, 0x0D, 0
   374 00000998 6C6F6164206B65726E-
   374 000009A1 656C2E2E2E0A0D00   
   375                                  
   376                                  ;***********************************************************
   377                                  ;  ブート処理の第6ステージ
   378                                  ;***********************************************************
   379                                  stage_6:
   380                                          ;------------------------------------------
   381                                          ; 文字列を表示
   382                                          ;------------------------------------------
   383 000009A9 68[C209]E8F5F683C4-             cdecl puts, .s0
   383 000009B1 02                 
   384                                  
   385                                          ;------------------------------------------
   386                                          ; ユーザーからの入力待ち
   387                                          ;------------------------------------------
   388                                  .10L:
   389 000009B2 B400                            mov ah, 0x00
   390 000009B4 CD16                            int 0x16
   391 000009B6 3C20                            cmp al, ' '
   392 000009B8 75F8                            jne .10L
   393                                  
   394                                          ;------------------------------------------
   395                                          ; ビデオモードの設定
   396                                          ;------------------------------------------
   397 000009BA B81200                          mov ax, 0x0012
   398 000009BD CD10                            int 0x10
   399                                  
   400                                          ;------------------------------------------
   401                                          ; 次のステージへ移行
   402                                          ;------------------------------------------
   403 000009BF E9FA00                          jmp stage_7
   404                                  
   405                                          ;------------------------------------------
   406                                          ; データ
   407                                          ;------------------------------------------
   408 000009C2 367468207374616765-     .s0:    db "6th stage...", 0x0A, 0x0D, 0x0A, 0x0D
   408 000009CB 2E2E2E0A0D0A0D     
   409 000009D2 205B50757368205350-             db " [Push SPACE key to protect mode...]", 0x0A, 0x0D, 0
   409 000009DB 414345206B65792074-
   409 000009E4 6F2070726F74656374-
   409 000009ED 206D6F64652E2E2E5D-
   409 000009F6 0A0D00             
   410                                  
   411                                  ;***********************************************************
   412                                  ;  ファイル読み込み
   413                                  ;***********************************************************
   414                                  read_file:
   415                                          ;-----------------------------------------
   416                                          ; 【レジスタの保存】
   417                                          ;-----------------------------------------
   418 000009F9 50                              push ax
   419 000009FA 53                              push bx
   420 000009FB 51                              push cx
   421                                  
   422 000009FC 6A1068[470A]680078-             cdecl memcpy, 0x7800, .s0, .s1 - .s0
   422 00000A04 E863FC83C406       
   423                                  
   424                                          ;------------------------------------------
   425                                          ; ルートディレクトリのセクタを読み込む
   426                                          ;------------------------------------------
   427 00000A0A BB2002                          mov bx, 32 + 256 + 256
   428 00000A0D B92000                          mov cx, (512 * 32) / 512
   429                                  .10L:
   430                                  
   431                                          ;------------------------------------------
   432                                          ; 1セクタ(16エントリ)分を読み込む
   433                                          ;------------------------------------------
   434 00000A10 6800766A015368-                 cdecl read_lba, BOOT, bx, 1, 0x7600
   434 00000A17 [9C00]E818FC83C408 
   435 00000A1F 83F800                          cmp ax, 0
   436 00000A22 741F                            je .10E
   437                                  
   438                                          ;------------------------------------------
   439                                          ; ディレクトリエントリからファイル名を検索
   440                                          ;------------------------------------------
   441 00000A24 E83000                          cdecl fat_find_file
   442 00000A27 83F800                          cmp ax, 0
   443 00000A2A 7414                            je .12E
   444                                  
   445 00000A2C 053E02                          add ax, 32 + 256 + 256 + 32 - 2
   446 00000A2F 6800786A015068-                 cdecl read_lba, BOOT, ax, 1, 0x7800
   446 00000A36 [9C00]E8F9FB83C408 
   447                                  
   448 00000A3E EB03                            jmp .10E
   449                                  .12E:
   450 00000A40 43                              inc bx
   451 00000A41 E2CD                            loop .10L
   452                                  .10E:
   453                                  
   454                                          ;-----------------------------------------
   455                                          ; 【レジスタの復帰】
   456                                          ;-----------------------------------------
   457 00000A43 59                              pop cx
   458 00000A44 5B                              pop bx
   459 00000A45 58                              pop ax
   460                                  
   461 00000A46 C3                              ret
   462                                  
   463 00000A47 46696C65206E6F7420-     .s0:    db 'File not found.', 0
   463 00000A50 666F756E642E00     
   464                                  .s1:
   465                                  
   466                                  fat_find_file:
   467                                          ;-----------------------------------------
   468                                          ; 【レジスタの保存】
   469                                          ;-----------------------------------------
   470 00000A57 53                              push bx
   471 00000A58 51                              push cx
   472 00000A59 56                              push si
   473                                  
   474                                          ;------------------------------------------
   475                                          ; ファイル名検索
   476                                          ;------------------------------------------
   477 00000A5A FC                              cld
   478 00000A5B BB0000                          mov bx, 0
   479 00000A5E B91000                          mov cx, 512 / 32
   480 00000A61 BE0076                          mov si, 0x7600
   481                                  
   482                                  .10L:
   483 00000A64 80640B18                        and [si + 11], byte 0x18
   484 00000A68 7516                            jnz .12E
   485                                  
   486 00000A6A 6A0B68[8B0A]56E810-             cdecl memcmp, si, .s0, 8 + 3
   486 00000A72 FC83C406           
   487 00000A76 83F800                          cmp ax, 0
   488 00000A79 7505                            jne .12E
   489                                  
   490 00000A7B 8B5C1A                          mov bx, word [si + 0x1A]
   491 00000A7E EB05                            jmp .10E
   492                                  
   493                                  .12E:
   494 00000A80 83C620                          add si, 32
   495 00000A83 E2DF                            loop .10L
   496                                  .10E:
   497 00000A85 89D8                            mov ax, bx
   498                                  
   499                                          ;-----------------------------------------
   500                                          ; 【レジスタの復帰】
   501                                          ;-----------------------------------------
   502 00000A87 5E                              pop si
   503 00000A88 59                              pop cx
   504 00000A89 5B                              pop bx
   505                                  
   506 00000A8A C3                              ret
   507                                  
   508 00000A8B 5350454349414C2054-     .s0:    db 'SPECIAL TXT', 0
   508 00000A94 585400             
   509                                  
   510                                  ;***********************************************************
   511                                  ;  GLOBAL DESCRIPTOR TABLE
   512                                  ;  (セグメントディスクリプタの配列)
   513                                  ;***********************************************************
   514 00000A97 00                      ALIGN 4, db 0
   515 00000A98 0000000000000000        GDT:    dq 0x00_0_0_0_0_000000_0000
   516 00000AA0 FFFF0000009ACF00        .cs:    dq 0x00_C_F_9_A_000000_FFFF
   517 00000AA8 FFFF00000092CF00        .ds:    dq 0x00_C_F_9_2_000000_FFFF
   518                                  .gdt_end:
   519                                  
   520                                  ;==========================================
   521                                  ;  セレクタ
   522                                  ;==========================================
   523                                  SEL_CODE equ .cs - GDT
   524                                  SEL_DATA equ .ds - GDT
   525                                  
   526                                  ;==========================================
   527                                  ;  GDT
   528                                  ;==========================================
   529 00000AB0 1700                    GDTR:   dw GDT.gdt_end - GDT - 1
   530 00000AB2 [980A0000]                      dd GDT
   531                                  
   532                                  ;==========================================
   533                                  ;  IDT(疑似:割り込み禁止にするため)
   534                                  ;==========================================
   535 00000AB6 0000                    IDTR:   dw 0
   536 00000AB8 00000000                        dd 0
   537                                  
   538                                  ;***********************************************************
   539                                  ;  ブート処理の第7ステージ
   540                                  ;***********************************************************
   541                                  stage_7:
   542 00000ABC FA                              cli
   543                                  
   544                                          ;------------------------------------------
   545                                          ; GDTロード
   546                                          ;------------------------------------------
   547 00000ABD 0F0116[B00A]                    lgdt [GDTR]
   548 00000AC2 0F011E[B60A]                    lidt [IDTR]
   549                                  
   550                                          ;------------------------------------------
   551                                          ; プロテクトモードへ移行
   552                                          ;------------------------------------------
   553 00000AC7 0F20C0                          mov eax, cr0
   554 00000ACA 83C801                          or ax, 1
   555 00000ACD 0F22C0                          mov cr0, eax
   556                                  
   557 00000AD0 EB00                            jmp $ + 2
   558                                  
   559                                          ;------------------------------------------
   560                                          ; セグメント間ジャンプ
   561                                          ;------------------------------------------
   562                                  [BITS 32]
   563 00000AD2 66                              DB 0x66
   564 00000AD3 EA[DA0A0000]0800                jmp SEL_CODE:CODE_32
   565                                  
   566                                  ;***********************************************************
   567                                  ;  32ビットコードを開始
   568                                  ;***********************************************************
   569                                  CODE_32:
   570                                          ;------------------------------------------
   571                                          ; セレクタを初期化
   572                                          ;------------------------------------------
   573 00000ADA 66B81000                        mov ax, SEL_DATA
   574 00000ADE 8ED8                            mov ds, ax
   575 00000AE0 8EC0                            mov es, ax
   576 00000AE2 8EE0                            mov fs, ax
   577 00000AE4 8EE8                            mov gs, ax
   578 00000AE6 8ED0                            mov ss, ax
   579                                  
   580                                          ;------------------------------------------
   581                                          ; カーネル部をコピー
   582                                          ;------------------------------------------
   583 00000AE8 B900080000                      mov ecx, (KERNEL_SIZE) / 4
   584 00000AED BE009C0000                      mov esi, BOOT_END
   585 00000AF2 BF00101000                      mov edi, KERNEL_LOAD
   586 00000AF7 FC                              cld
   587 00000AF8 F3A5                            rep movsd
   588                                  
   589                                          ;------------------------------------------
   590                                          ; カーネル処理に移行
   591                                          ;------------------------------------------
   592 00000AFA E9(00101000)                    jmp KERNEL_LOAD
   593                                  
   594                                  ;***********************************************************
   595                                  ;  リアルモードへの移行プログラム
   596                                  ;***********************************************************
   597                                  TO_REAL_MODE:
   598                                          ;-----------------------------------------
   599                                          ; 【スタックフレームの構築】
   600                                          ;-----------------------------------------
   601 00000AFF 55                              push ebp
   602 00000B00 89E5                            mov ebp, esp
   603                                  
   604                                          ;-----------------------------------------
   605                                          ; 【レジスタの保存】
   606                                          ;-----------------------------------------
   607 00000B02 60                              pusha
   608                                  
   609 00000B03 FA                              cli
   610                                  
   611                                          ;-----------------------------------------
   612                                          ; 現在の設定値を保存
   613                                          ;-----------------------------------------
   614 00000B04 0F20C0                          mov eax, cr0
   615 00000B07 A3[E90B0000]                    mov [.cr0_saved], eax
   616 00000B0C 8925[ED0B0000]                  mov [.esp_saved], esp
   617 00000B12 0F010D[E30B0000]                sidt [.idtr_save]
   618 00000B19 0F011D[DD0B0000]                lidt [.idtr_real]
   619                                  
   620                                          ;-----------------------------------------
   621                                          ; 16ビットのプロテクトモードに移行
   622                                          ;-----------------------------------------
   623 00000B20 EA[270B0000]1800                jmp 0x0018:.bit16
   624                                  [BITS 16]
   625 00000B27 B82000                  .bit16:	mov ax, 0x0020
   626 00000B2A 8ED8                            mov ds, ax
   627 00000B2C 8EC0                            mov es, ax
   628 00000B2E 8ED0                            mov ss, ax
   629                                  
   630                                          ;-----------------------------------------
   631                                          ; リアルモードへ移行(ページング無効化)
   632                                          ;-----------------------------------------
   633 00000B30 0F20C0                          mov eax, cr0
   634 00000B33 6625FEFFFF7F                    and eax, 0x7FFF_FFFE
   635 00000B39 0F22C0                          mov cr0, eax
   636 00000B3C EB00                            jmp $ + 2
   637                                  
   638                                          ;-----------------------------------------
   639                                          ; セグメント設定(リアルモード)
   640                                          ;-----------------------------------------
   641 00000B3E EA[430B]0000                    jmp 0:.real
   642 00000B43 B80000                  .real:	mov ax, 0x0000
   643 00000B46 8ED8                            mov ds, ax
   644 00000B48 8EC0                            mov es, ax
   645 00000B4A 8ED0                            mov ss, ax
   646 00000B4C BC007C                          mov sp, 0x7C00
   647                                  
   648                                          ;-----------------------------------------
   649                                          ; 割り込みマスクの設定(リアルモード用)
   650                                          ;-----------------------------------------
   651                                          outp 0x20, 0x11
   651 00000B4F B011                <1>  mov al, %2
   651 00000B51 E620                <1>  out %1, al
   652                                          outp 0x21, 0x08
   652 00000B53 B008                <1>  mov al, %2
   652 00000B55 E621                <1>  out %1, al
   653                                          outp 0x21, 0x04
   653 00000B57 B004                <1>  mov al, %2
   653 00000B59 E621                <1>  out %1, al
   654                                          outp 0x21, 0x01
   654 00000B5B B001                <1>  mov al, %2
   654 00000B5D E621                <1>  out %1, al
   655                                  
   656                                          outp 0xA0, 0x11
   656 00000B5F B011                <1>  mov al, %2
   656 00000B61 E6A0                <1>  out %1, al
   657                                          outp 0xA1, 0x10
   657 00000B63 B010                <1>  mov al, %2
   657 00000B65 E6A1                <1>  out %1, al
   658                                          outp 0xA1, 0x02
   658 00000B67 B002                <1>  mov al, %2
   658 00000B69 E6A1                <1>  out %1, al
   659                                          outp 0xA1, 0x01
   659 00000B6B B001                <1>  mov al, %2
   659 00000B6D E6A1                <1>  out %1, al
   660                                  
   661                                          outp 0x21, 0b_1011_1000
   661 00000B6F B0B8                <1>  mov al, %2
   661 00000B71 E621                <1>  out %1, al
   662                                          outp 0xA1, 0b_1011_1110
   662 00000B73 B0BE                <1>  mov al, %2
   662 00000B75 E6A1                <1>  out %1, al
   663                                  
   664 00000B77 FB                              sti
   665                                  
   666                                          ;-----------------------------------------
   667                                          ; ファイル読み込み
   668                                          ;-----------------------------------------
   669 00000B78 E87EFE                          cdecl read_file
   670                                  
   671                                          ;-----------------------------------------
   672                                          ; 割り込みマスクの設定(プロテクトモード用)
   673                                          ;-----------------------------------------
   674 00000B7B FA                              cli
   675                                  
   676                                          outp 0x20, 0x11
   676 00000B7C B011                <1>  mov al, %2
   676 00000B7E E620                <1>  out %1, al
   677                                          outp 0x21, 0x20
   677 00000B80 B020                <1>  mov al, %2
   677 00000B82 E621                <1>  out %1, al
   678                                          outp 0x21, 0x04
   678 00000B84 B004                <1>  mov al, %2
   678 00000B86 E621                <1>  out %1, al
   679                                          outp 0x21, 0x01
   679 00000B88 B001                <1>  mov al, %2
   679 00000B8A E621                <1>  out %1, al
   680                                  
   681                                          outp 0xA0, 0x11
   681 00000B8C B011                <1>  mov al, %2
   681 00000B8E E6A0                <1>  out %1, al
   682                                          outp 0xA1, 0x28
   682 00000B90 B028                <1>  mov al, %2
   682 00000B92 E6A1                <1>  out %1, al
   683                                          outp 0xA1, 0x02
   683 00000B94 B002                <1>  mov al, %2
   683 00000B96 E6A1                <1>  out %1, al
   684                                          outp 0xA1, 0x01
   684 00000B98 B001                <1>  mov al, %2
   684 00000B9A E6A1                <1>  out %1, al
   685                                  
   686                                          outp 0x21, 0b_1111_1000
   686 00000B9C B0F8                <1>  mov al, %2
   686 00000B9E E621                <1>  out %1, al
   687                                          outp 0xA1, 0b_1111_1110
   687 00000BA0 B0FE                <1>  mov al, %2
   687 00000BA2 E6A1                <1>  out %1, al
   688                                  
   689                                          ;-----------------------------------------
   690                                          ; 16ビットプロテクトモードに移行
   691                                          ;-----------------------------------------
   692 00000BA4 0F20C0                          mov eax, cr0
   693 00000BA7 6683C801                        or eax, 1
   694 00000BAB 0F22C0                          mov cr0, eax
   695                                  
   696 00000BAE EB00                            jmp $ + 2
   697                                  
   698                                          ;-----------------------------------------
   699                                          ; 32ビットプロテクトモードに移行
   700                                          ;-----------------------------------------
   701 00000BB0 66                              DB 0x66
   702                                  [BITS 32]
   703 00000BB1 EA[B80B0000]0800                jmp 0x0008:.bit32
   704 00000BB8 66B81000                .bit32: mov ax, 0x0010
   705 00000BBC 8ED8                            mov ds, ax
   706 00000BBE 8EC0                            mov es, ax
   707 00000BC0 8ED0                            mov ss, ax
   708                                  
   709                                          ;-----------------------------------------
   710                                          ; レジスタ設定の復帰
   711                                          ;-----------------------------------------
   712 00000BC2 8B25[ED0B0000]                  mov esp, [.esp_saved]
   713 00000BC8 A1[E90B0000]                    mov eax, [.cr0_saved]
   714 00000BCD 0F22C0                          mov cr0, eax
   715 00000BD0 0F011D[E30B0000]                lidt [.idtr_save]
   716                                  
   717 00000BD7 FB                              sti
   718                                  
   719                                          ;-----------------------------------------
   720                                          ; 【レジスタの復帰】
   721                                          ;-----------------------------------------
   722 00000BD8 61                              popa
   723                                  
   724                                          ;-----------------------------------------
   725                                          ; 【スタックフレームの破棄】
   726                                          ;-----------------------------------------
   727 00000BD9 89EC                            mov esp, ebp
   728 00000BDB 5D                              pop ebp
   729                                  
   730 00000BDC C3                              ret
   731                                  
   732                                  .idtr_real:
   733 00000BDD FF03                            dw 0x3FF
   734 00000BDF 00000000                        dd 0
   735                                  
   736                                  .idtr_save:
   737 00000BE3 0000                            dw 0
   738 00000BE5 00000000                        dd 0
   739                                  
   740                                  .cr0_saved:
   741 00000BE9 00000000                        dd 0
   742                                  
   743                                  .esp_saved:
   744 00000BED 00000000                        dd 0
   745                                  
   746                                  ;***********************************************************
   747                                  ;  パディング
   748                                  ;***********************************************************
   749 00000BF1 00<rept>                        times BOOT_SIZE - ($ - $$) - 16 db 0
   750                                  
   751 00001FF0 [FF0A0000]                      dd TO_REAL_MODE
   752                                  
   753                                  ;***********************************************************
   754                                  ;  パディング（このファイルは8Kバイトとする）
   755                                  ;***********************************************************
   756 00001FF4 00<rept>                        times BOOT_SIZE - ($ - $$) db 0
